
build/main:     file format elf64-littleriscv


Disassembly of section .text:

0000000050201000 <_start>:
    50201000:	10401073          	csrw	sie,zero
    50201004:	14401073          	csrw	sip,zero
    50201008:	00001297          	auipc	t0,0x1
    5020100c:	94028293          	addi	t0,t0,-1728 # 50201948 <kernel_sectors>
    50201010:	00003317          	auipc	t1,0x3
    50201014:	af830313          	addi	t1,t1,-1288 # 50203b08 <__BSS_END__>

0000000050201018 <bss_clear>:
    50201018:	0062d663          	bge	t0,t1,50201024 <clear_done>
    5020101c:	0002b023          	sd	zero,0(t0)
    50201020:	02a1                	addi	t0,t0,8
    50201022:	bfdd                	j	50201018 <bss_clear>

0000000050201024 <clear_done>:
    50201024:	50500137          	lui	sp,0x50500
    50201028:	00a000ef          	jal	50201032 <main>

000000005020102c <loop>:
    5020102c:	10500073          	wfi
    50201030:	bff5                	j	5020102c <loop>

0000000050201032 <main>:
    50201032:	7175                	addi	sp,sp,-144
    50201034:	e122                	sd	s0,128(sp)
    50201036:	fca6                	sd	s1,120(sp)
    50201038:	e506                	sd	ra,136(sp)
    5020103a:	f8ca                	sd	s2,112(sp)
    5020103c:	f4ce                	sd	s3,104(sp)
    5020103e:	f0d2                	sd	s4,96(sp)
    50201040:	ecd6                	sd	s5,88(sp)
    50201042:	0900                	addi	s0,sp,144
    50201044:	00001497          	auipc	s1,0x1
    50201048:	90c48493          	addi	s1,s1,-1780 # 50201950 <buf>
    5020104c:	87a6                	mv	a5,s1
    5020104e:	00001697          	auipc	a3,0x1
    50201052:	93468693          	addi	a3,a3,-1740 # 50201982 <buf+0x32>
    50201056:	a019                	j	5020105c <main+0x2a>
    50201058:	22f68e63          	beq	a3,a5,50201294 <main+0x262>
    5020105c:	0007c703          	lbu	a4,0(a5)
    50201060:	0785                	addi	a5,a5,1
    50201062:	db7d                	beqz	a4,50201058 <main+0x26>
    50201064:	4a01                	li	s4,0
    50201066:	502007b7          	lui	a5,0x50200
    5020106a:	1fe7d703          	lhu	a4,510(a5) # 502001fe <_start-0xe02>
    5020106e:	502007b7          	lui	a5,0x50200
    50201072:	1f87a603          	lw	a2,504(a5) # 502001f8 <_start-0xe08>
    50201076:	0037191b          	slliw	s2,a4,0x3
    5020107a:	40e9093b          	subw	s2,s2,a4
    5020107e:	1ff67a93          	andi	s5,a2,511
    50201082:	0039191b          	slliw	s2,s2,0x3
    50201086:	012a85bb          	addw	a1,s5,s2
    5020108a:	1ff5859b          	addiw	a1,a1,511
    5020108e:	e005f793          	andi	a5,a1,-512
    50201092:	52000837          	lui	a6,0x52000
    50201096:	00000e17          	auipc	t3,0x0
    5020109a:	22ae0e13          	addi	t3,t3,554 # 502012c0 <port_write>
    5020109e:	898a                	mv	s3,sp
    502010a0:	40f10133          	sub	sp,sp,a5
    502010a4:	86c2                	mv	a3,a6
    502010a6:	f1c83023          	sd	t3,-256(a6) # 51ffff00 <__BSS_END__+0x1dfc3f8>
    502010aa:	00000317          	auipc	t1,0x0
    502010ae:	20230313          	addi	t1,t1,514 # 502012ac <port_write_ch>
    502010b2:	00000897          	auipc	a7,0x0
    502010b6:	22288893          	addi	a7,a7,546 # 502012d4 <port_read_ch>
    502010ba:	00000817          	auipc	a6,0x0
    502010be:	23c80813          	addi	a6,a6,572 # 502012f6 <sd_read>
    502010c2:	02011513          	slli	a0,sp,0x20
    502010c6:	f066b423          	sd	t1,-248(a3)
    502010ca:	f116b823          	sd	a7,-240(a3)
    502010ce:	f106bc23          	sd	a6,-232(a3)
    502010d2:	4701                	li	a4,0
    502010d4:	4681                	li	a3,0
    502010d6:	0096561b          	srliw	a2,a2,0x9
    502010da:	85a5                	srai	a1,a1,0x9
    502010dc:	9101                	srli	a0,a0,0x20
    502010de:	218000ef          	jal	502012f6 <sd_read>
    502010e2:	864a                	mv	a2,s2
    502010e4:	015105b3          	add	a1,sp,s5
    502010e8:	00001517          	auipc	a0,0x1
    502010ec:	8a050513          	addi	a0,a0,-1888 # 50201988 <tasks>
    502010f0:	3ae000ef          	jal	5020149e <memcpy>
    502010f4:	00000797          	auipc	a5,0x0
    502010f8:	59478793          	addi	a5,a5,1428 # 50201688 <strcat+0xbe>
    502010fc:	6390                	ld	a2,0(a5)
    502010fe:	6794                	ld	a3,8(a5)
    50201100:	6b98                	ld	a4,16(a5)
    50201102:	00000797          	auipc	a5,0x0
    50201106:	59e7d783          	lhu	a5,1438(a5) # 502016a0 <strcat+0xd6>
    5020110a:	814e                	mv	sp,s3
    5020110c:	f8c43023          	sd	a2,-128(s0)
    50201110:	f8f41c23          	sh	a5,-104(s0)
    50201114:	f8d43423          	sd	a3,-120(s0)
    50201118:	f8e43823          	sd	a4,-112(s0)
    5020111c:	06600793          	li	a5,102
    50201120:	000a0463          	beqz	s4,50201128 <main+0xf6>
    50201124:	07400793          	li	a5,116
    50201128:	00001717          	auipc	a4,0x1
    5020112c:	81c72703          	lw	a4,-2020(a4) # 50201944 <version>
    50201130:	f6f40c23          	sb	a5,-136(s0)
    50201134:	00001597          	auipc	a1,0x1
    50201138:	83658593          	addi	a1,a1,-1994 # 5020196a <buf+0x1a>
    5020113c:	0307071b          	addiw	a4,a4,48
    50201140:	f8040793          	addi	a5,s0,-128
    50201144:	f6e40ca3          	sb	a4,-135(s0)
    50201148:	4681                	li	a3,0
    5020114a:	05f00613          	li	a2,95
    5020114e:	0007c703          	lbu	a4,0(a5)
    50201152:	0785                	addi	a5,a5,1
    50201154:	00e48023          	sb	a4,0(s1)
    50201158:	00c71963          	bne	a4,a2,5020116a <main+0x138>
    5020115c:	00868733          	add	a4,a3,s0
    50201160:	f7874703          	lbu	a4,-136(a4)
    50201164:	2685                	addiw	a3,a3,1
    50201166:	00e48023          	sb	a4,0(s1)
    5020116a:	0485                	addi	s1,s1,1
    5020116c:	fe9591e3          	bne	a1,s1,5020114e <main+0x11c>
    50201170:	00000517          	auipc	a0,0x0
    50201174:	48850513          	addi	a0,a0,1160 # 502015f8 <strcat+0x2e>
    50201178:	120000ef          	jal	50201298 <bios_putstr>
    5020117c:	00000517          	auipc	a0,0x0
    50201180:	7d450513          	addi	a0,a0,2004 # 50201950 <buf>
    50201184:	52000937          	lui	s2,0x52000
    50201188:	52000ab7          	lui	s5,0x52000
    5020118c:	52000a37          	lui	s4,0x52000
    50201190:	108000ef          	jal	50201298 <bios_putstr>
    50201194:	f1090913          	addi	s2,s2,-240 # 51ffff10 <__BSS_END__+0x1dfc408>
    50201198:	f08a8a93          	addi	s5,s5,-248 # 51ffff08 <__BSS_END__+0x1dfc400>
    5020119c:	f00a0a13          	addi	s4,s4,-256 # 51ffff00 <__BSS_END__+0x1dfc3f8>
    502011a0:	4481                	li	s1,0
    502011a2:	59fd                	li	s3,-1
    502011a4:	00093783          	ld	a5,0(s2)
    502011a8:	4701                	li	a4,0
    502011aa:	4681                	li	a3,0
    502011ac:	4601                	li	a2,0
    502011ae:	4581                	li	a1,0
    502011b0:	4501                	li	a0,0
    502011b2:	9782                	jalr	a5
    502011b4:	0005079b          	sext.w	a5,a0
    502011b8:	ff3786e3          	beq	a5,s3,502011a4 <main+0x172>
    502011bc:	ff378713          	addi	a4,a5,-13
    502011c0:	cb1d                	beqz	a4,502011f6 <main+0x1c4>
    502011c2:	ff678713          	addi	a4,a5,-10
    502011c6:	cb05                	beqz	a4,502011f6 <main+0x1c4>
    502011c8:	fe05071b          	addiw	a4,a0,-32
    502011cc:	05e00693          	li	a3,94
    502011d0:	04e6e863          	bltu	a3,a4,50201220 <main+0x1ee>
    502011d4:	4779                	li	a4,30
    502011d6:	fc9747e3          	blt	a4,s1,502011a4 <main+0x172>
    502011da:	00848733          	add	a4,s1,s0
    502011de:	faa70023          	sb	a0,-96(a4)
    502011e2:	000ab803          	ld	a6,0(s5)
    502011e6:	853e                	mv	a0,a5
    502011e8:	4701                	li	a4,0
    502011ea:	4681                	li	a3,0
    502011ec:	4601                	li	a2,0
    502011ee:	4581                	li	a1,0
    502011f0:	9802                	jalr	a6
    502011f2:	2485                	addiw	s1,s1,1
    502011f4:	bf45                	j	502011a4 <main+0x172>
    502011f6:	000ab783          	ld	a5,0(s5)
    502011fa:	4681                	li	a3,0
    502011fc:	4601                	li	a2,0
    502011fe:	4581                	li	a1,0
    50201200:	4529                	li	a0,10
    50201202:	9782                	jalr	a5
    50201204:	e89d                	bnez	s1,5020123a <main+0x208>
    50201206:	000a3783          	ld	a5,0(s4)
    5020120a:	4701                	li	a4,0
    5020120c:	4681                	li	a3,0
    5020120e:	4601                	li	a2,0
    50201210:	4581                	li	a1,0
    50201212:	00000517          	auipc	a0,0x0
    50201216:	3f650513          	addi	a0,a0,1014 # 50201608 <strcat+0x3e>
    5020121a:	9782                	jalr	a5
    5020121c:	4481                	li	s1,0
    5020121e:	b759                	j	502011a4 <main+0x172>
    50201220:	000a3783          	ld	a5,0(s4)
    50201224:	4701                	li	a4,0
    50201226:	4681                	li	a3,0
    50201228:	4601                	li	a2,0
    5020122a:	4581                	li	a1,0
    5020122c:	00000517          	auipc	a0,0x0
    50201230:	44450513          	addi	a0,a0,1092 # 50201670 <strcat+0xa6>
    50201234:	9782                	jalr	a5
    50201236:	4481                	li	s1,0
    50201238:	b7b5                	j	502011a4 <main+0x172>
    5020123a:	94a2                	add	s1,s1,s0
    5020123c:	fa040513          	addi	a0,s0,-96
    50201240:	fa048023          	sb	zero,-96(s1)
    50201244:	102000ef          	jal	50201346 <load_task_img>
    50201248:	c915                	beqz	a0,5020127c <main+0x24a>
    5020124a:	9502                	jalr	a0
    5020124c:	000a3783          	ld	a5,0(s4)
    50201250:	4701                	li	a4,0
    50201252:	4681                	li	a3,0
    50201254:	4601                	li	a2,0
    50201256:	4581                	li	a1,0
    50201258:	00000517          	auipc	a0,0x0
    5020125c:	3e050513          	addi	a0,a0,992 # 50201638 <strcat+0x6e>
    50201260:	9782                	jalr	a5
    50201262:	000a3783          	ld	a5,0(s4)
    50201266:	4701                	li	a4,0
    50201268:	4681                	li	a3,0
    5020126a:	4601                	li	a2,0
    5020126c:	4581                	li	a1,0
    5020126e:	00000517          	auipc	a0,0x0
    50201272:	3e250513          	addi	a0,a0,994 # 50201650 <strcat+0x86>
    50201276:	9782                	jalr	a5
    50201278:	4481                	li	s1,0
    5020127a:	b72d                	j	502011a4 <main+0x172>
    5020127c:	000a3783          	ld	a5,0(s4)
    50201280:	4701                	li	a4,0
    50201282:	4681                	li	a3,0
    50201284:	4601                	li	a2,0
    50201286:	4581                	li	a1,0
    50201288:	00000517          	auipc	a0,0x0
    5020128c:	39050513          	addi	a0,a0,912 # 50201618 <strcat+0x4e>
    50201290:	9782                	jalr	a5
    50201292:	bfc1                	j	50201262 <main+0x230>
    50201294:	4a05                	li	s4,1
    50201296:	bbc1                	j	50201066 <main+0x34>

0000000050201298 <bios_putstr>:
    50201298:	520007b7          	lui	a5,0x52000
    5020129c:	f0078793          	addi	a5,a5,-256 # 51ffff00 <__BSS_END__+0x1dfc3f8>
    502012a0:	639c                	ld	a5,0(a5)
    502012a2:	4701                	li	a4,0
    502012a4:	4681                	li	a3,0
    502012a6:	4601                	li	a2,0
    502012a8:	4581                	li	a1,0
    502012aa:	8782                	jr	a5

00000000502012ac <port_write_ch>:
    502012ac:	50150337          	lui	t1,0x50150
    502012b0:	4885                	li	a7,1
    502012b2:	4801                	li	a6,0
    502012b4:	4781                	li	a5,0
    502012b6:	4701                	li	a4,0
    502012b8:	4681                	li	a3,0
    502012ba:	4601                	li	a2,0
    502012bc:	4581                	li	a1,0
    502012be:	8302                	jr	t1

00000000502012c0 <port_write>:
    502012c0:	50150337          	lui	t1,0x50150
    502012c4:	48a5                	li	a7,9
    502012c6:	4801                	li	a6,0
    502012c8:	4781                	li	a5,0
    502012ca:	4701                	li	a4,0
    502012cc:	4681                	li	a3,0
    502012ce:	4601                	li	a2,0
    502012d0:	4581                	li	a1,0
    502012d2:	8302                	jr	t1

00000000502012d4 <port_read_ch>:
    502012d4:	1141                	addi	sp,sp,-16 # 504ffff0 <__BSS_END__+0x2fc4e8>
    502012d6:	e406                	sd	ra,8(sp)
    502012d8:	50150337          	lui	t1,0x50150
    502012dc:	4889                	li	a7,2
    502012de:	4801                	li	a6,0
    502012e0:	4781                	li	a5,0
    502012e2:	4701                	li	a4,0
    502012e4:	4681                	li	a3,0
    502012e6:	4601                	li	a2,0
    502012e8:	4581                	li	a1,0
    502012ea:	4501                	li	a0,0
    502012ec:	9302                	jalr	t1
    502012ee:	60a2                	ld	ra,8(sp)
    502012f0:	2501                	sext.w	a0,a0
    502012f2:	0141                	addi	sp,sp,16
    502012f4:	8082                	ret

00000000502012f6 <sd_read>:
    502012f6:	1141                	addi	sp,sp,-16
    502012f8:	1502                	slli	a0,a0,0x20
    502012fa:	1582                	slli	a1,a1,0x20
    502012fc:	1602                	slli	a2,a2,0x20
    502012fe:	e406                	sd	ra,8(sp)
    50201300:	9101                	srli	a0,a0,0x20
    50201302:	9181                	srli	a1,a1,0x20
    50201304:	9201                	srli	a2,a2,0x20
    50201306:	50150337          	lui	t1,0x50150
    5020130a:	48ad                	li	a7,11
    5020130c:	4801                	li	a6,0
    5020130e:	4781                	li	a5,0
    50201310:	4701                	li	a4,0
    50201312:	4681                	li	a3,0
    50201314:	9302                	jalr	t1
    50201316:	60a2                	ld	ra,8(sp)
    50201318:	2501                	sext.w	a0,a0
    5020131a:	0141                	addi	sp,sp,16
    5020131c:	8082                	ret

000000005020131e <sd_write>:
    5020131e:	1141                	addi	sp,sp,-16
    50201320:	1502                	slli	a0,a0,0x20
    50201322:	1582                	slli	a1,a1,0x20
    50201324:	1602                	slli	a2,a2,0x20
    50201326:	e406                	sd	ra,8(sp)
    50201328:	9101                	srli	a0,a0,0x20
    5020132a:	9181                	srli	a1,a1,0x20
    5020132c:	9201                	srli	a2,a2,0x20
    5020132e:	50150337          	lui	t1,0x50150
    50201332:	48a9                	li	a7,10
    50201334:	4801                	li	a6,0
    50201336:	4781                	li	a5,0
    50201338:	4701                	li	a4,0
    5020133a:	4681                	li	a3,0
    5020133c:	9302                	jalr	t1
    5020133e:	60a2                	ld	ra,8(sp)
    50201340:	2501                	sext.w	a0,a0
    50201342:	0141                	addi	sp,sp,16
    50201344:	8082                	ret

0000000050201346 <load_task_img>:
    50201346:	502007b7          	lui	a5,0x50200
    5020134a:	1fc79703          	lh	a4,508(a5) # 502001fc <_start-0xe04>
    5020134e:	502007b7          	lui	a5,0x50200
    50201352:	7179                	addi	sp,sp,-48
    50201354:	1fe78793          	addi	a5,a5,510 # 502001fe <_start-0xe02>
    50201358:	00000697          	auipc	a3,0x0
    5020135c:	5ee69823          	sh	a4,1520(a3) # 50201948 <kernel_sectors>
    50201360:	00079783          	lh	a5,0(a5)
    50201364:	f406                	sd	ra,40(sp)
    50201366:	f022                	sd	s0,32(sp)
    50201368:	00000717          	auipc	a4,0x0
    5020136c:	5ef71123          	sh	a5,1506(a4) # 5020194a <tasknum>
    50201370:	10f05363          	blez	a5,50201476 <load_task_img+0x130>
    50201374:	e44e                	sd	s3,8(sp)
    50201376:	00000997          	auipc	s3,0x0
    5020137a:	61298993          	addi	s3,s3,1554 # 50201988 <tasks>
    5020137e:	ec26                	sd	s1,24(sp)
    50201380:	e84a                	sd	s2,16(sp)
    50201382:	84ce                	mv	s1,s3
    50201384:	892a                	mv	s2,a0
    50201386:	4401                	li	s0,0
    50201388:	a811                	j	5020139c <load_task_img+0x56>
    5020138a:	00000797          	auipc	a5,0x0
    5020138e:	5c079783          	lh	a5,1472(a5) # 5020194a <tasknum>
    50201392:	2405                	addiw	s0,s0,1
    50201394:	03848493          	addi	s1,s1,56
    50201398:	0cf45c63          	bge	s0,a5,50201470 <load_task_img+0x12a>
    5020139c:	85ca                	mv	a1,s2
    5020139e:	8526                	mv	a0,s1
    502013a0:	15e000ef          	jal	502014fe <strcmp>
    502013a4:	f17d                	bnez	a0,5020138a <load_task_img+0x44>
    502013a6:	52000937          	lui	s2,0x52000
    502013aa:	f0093783          	ld	a5,-256(s2) # 51ffff00 <__BSS_END__+0x1dfc3f8>
    502013ae:	4701                	li	a4,0
    502013b0:	4681                	li	a3,0
    502013b2:	4601                	li	a2,0
    502013b4:	4581                	li	a1,0
    502013b6:	00000517          	auipc	a0,0x0
    502013ba:	31250513          	addi	a0,a0,786 # 502016c8 <strcat+0xfe>
    502013be:	9782                	jalr	a5
    502013c0:	00341793          	slli	a5,s0,0x3
    502013c4:	8f81                	sub	a5,a5,s0
    502013c6:	078e                	slli	a5,a5,0x3
    502013c8:	00f984b3          	add	s1,s3,a5
    502013cc:	f0093783          	ld	a5,-256(s2)
    502013d0:	8526                	mv	a0,s1
    502013d2:	4701                	li	a4,0
    502013d4:	4681                	li	a3,0
    502013d6:	4601                	li	a2,0
    502013d8:	4581                	li	a1,0
    502013da:	9782                	jalr	a5
    502013dc:	f0093783          	ld	a5,-256(s2)
    502013e0:	4701                	li	a4,0
    502013e2:	4681                	li	a3,0
    502013e4:	4601                	li	a2,0
    502013e6:	4581                	li	a1,0
    502013e8:	00000517          	auipc	a0,0x0
    502013ec:	2f050513          	addi	a0,a0,752 # 502016d8 <strcat+0x10e>
    502013f0:	9782                	jalr	a5
    502013f2:	0204b983          	ld	s3,32(s1)
    502013f6:	7484                	ld	s1,40(s1)
    502013f8:	f1893783          	ld	a5,-232(s2)
    502013fc:	0099d613          	srli	a2,s3,0x9
    50201400:	009985b3          	add	a1,s3,s1
    50201404:	1ff58593          	addi	a1,a1,511
    50201408:	81a5                	srli	a1,a1,0x9
    5020140a:	00001817          	auipc	a6,0x1
    5020140e:	8fe80813          	addi	a6,a6,-1794 # 50201d08 <sector_buf.0>
    50201412:	8d91                	sub	a1,a1,a2
    50201414:	02081513          	slli	a0,a6,0x20
    50201418:	1582                	slli	a1,a1,0x20
    5020141a:	1602                	slli	a2,a2,0x20
    5020141c:	520008b7          	lui	a7,0x52000
    50201420:	4701                	li	a4,0
    50201422:	4681                	li	a3,0
    50201424:	9181                	srli	a1,a1,0x20
    50201426:	9201                	srli	a2,a2,0x20
    50201428:	9101                	srli	a0,a0,0x20
    5020142a:	0442                	slli	s0,s0,0x10
    5020142c:	0114043b          	addw	s0,s0,a7
    50201430:	9782                	jalr	a5
    50201432:	00001817          	auipc	a6,0x1
    50201436:	8d680813          	addi	a6,a6,-1834 # 50201d08 <sector_buf.0>
    5020143a:	1ff9f593          	andi	a1,s3,511
    5020143e:	95c2                	add	a1,a1,a6
    50201440:	0004861b          	sext.w	a2,s1
    50201444:	8522                	mv	a0,s0
    50201446:	058000ef          	jal	5020149e <memcpy>
    5020144a:	f0093783          	ld	a5,-256(s2)
    5020144e:	4701                	li	a4,0
    50201450:	4681                	li	a3,0
    50201452:	4601                	li	a2,0
    50201454:	4581                	li	a1,0
    50201456:	00000517          	auipc	a0,0x0
    5020145a:	28a50513          	addi	a0,a0,650 # 502016e0 <strcat+0x116>
    5020145e:	9782                	jalr	a5
    50201460:	70a2                	ld	ra,40(sp)
    50201462:	8522                	mv	a0,s0
    50201464:	7402                	ld	s0,32(sp)
    50201466:	64e2                	ld	s1,24(sp)
    50201468:	6942                	ld	s2,16(sp)
    5020146a:	69a2                	ld	s3,8(sp)
    5020146c:	6145                	addi	sp,sp,48
    5020146e:	8082                	ret
    50201470:	64e2                	ld	s1,24(sp)
    50201472:	6942                	ld	s2,16(sp)
    50201474:	69a2                	ld	s3,8(sp)
    50201476:	520007b7          	lui	a5,0x52000
    5020147a:	f0078793          	addi	a5,a5,-256 # 51ffff00 <__BSS_END__+0x1dfc3f8>
    5020147e:	639c                	ld	a5,0(a5)
    50201480:	4701                	li	a4,0
    50201482:	4681                	li	a3,0
    50201484:	4601                	li	a2,0
    50201486:	4581                	li	a1,0
    50201488:	00000517          	auipc	a0,0x0
    5020148c:	22050513          	addi	a0,a0,544 # 502016a8 <strcat+0xde>
    50201490:	9782                	jalr	a5
    50201492:	547d                	li	s0,-1
    50201494:	70a2                	ld	ra,40(sp)
    50201496:	8522                	mv	a0,s0
    50201498:	7402                	ld	s0,32(sp)
    5020149a:	6145                	addi	sp,sp,48
    5020149c:	8082                	ret

000000005020149e <memcpy>:
    5020149e:	ce01                	beqz	a2,502014b6 <memcpy+0x18>
    502014a0:	1602                	slli	a2,a2,0x20
    502014a2:	9201                	srli	a2,a2,0x20
    502014a4:	962a                	add	a2,a2,a0
    502014a6:	0005c783          	lbu	a5,0(a1)
    502014aa:	0505                	addi	a0,a0,1
    502014ac:	0585                	addi	a1,a1,1
    502014ae:	fef50fa3          	sb	a5,-1(a0)
    502014b2:	fec51ae3          	bne	a0,a2,502014a6 <memcpy+0x8>
    502014b6:	8082                	ret

00000000502014b8 <memset>:
    502014b8:	ca09                	beqz	a2,502014ca <memset+0x12>
    502014ba:	1602                	slli	a2,a2,0x20
    502014bc:	9201                	srli	a2,a2,0x20
    502014be:	962a                	add	a2,a2,a0
    502014c0:	0505                	addi	a0,a0,1
    502014c2:	feb50fa3          	sb	a1,-1(a0)
    502014c6:	fec51de3          	bne	a0,a2,502014c0 <memset+0x8>
    502014ca:	8082                	ret

00000000502014cc <bzero>:
    502014cc:	c989                	beqz	a1,502014de <bzero+0x12>
    502014ce:	1582                	slli	a1,a1,0x20
    502014d0:	9181                	srli	a1,a1,0x20
    502014d2:	95aa                	add	a1,a1,a0
    502014d4:	0505                	addi	a0,a0,1
    502014d6:	fe050fa3          	sb	zero,-1(a0)
    502014da:	feb51de3          	bne	a0,a1,502014d4 <bzero+0x8>
    502014de:	8082                	ret

00000000502014e0 <strlen>:
    502014e0:	00054783          	lbu	a5,0(a0)
    502014e4:	cb99                	beqz	a5,502014fa <strlen+0x1a>
    502014e6:	00150793          	addi	a5,a0,1
    502014ea:	86be                	mv	a3,a5
    502014ec:	0007c703          	lbu	a4,0(a5)
    502014f0:	0785                	addi	a5,a5,1
    502014f2:	ff65                	bnez	a4,502014ea <strlen+0xa>
    502014f4:	40a6853b          	subw	a0,a3,a0
    502014f8:	8082                	ret
    502014fa:	4501                	li	a0,0
    502014fc:	8082                	ret

00000000502014fe <strcmp>:
    502014fe:	00054703          	lbu	a4,0(a0)
    50201502:	eb01                	bnez	a4,50201512 <strcmp+0x14>
    50201504:	a025                	j	5020152c <strcmp+0x2e>
    50201506:	00e79b63          	bne	a5,a4,5020151c <strcmp+0x1e>
    5020150a:	00054703          	lbu	a4,0(a0)
    5020150e:	cb11                	beqz	a4,50201522 <strcmp+0x24>
    50201510:	0585                	addi	a1,a1,1
    50201512:	0005c783          	lbu	a5,0(a1)
    50201516:	0505                	addi	a0,a0,1
    50201518:	f7fd                	bnez	a5,50201506 <strcmp+0x8>
    5020151a:	2701                	sext.w	a4,a4
    5020151c:	40f7053b          	subw	a0,a4,a5
    50201520:	8082                	ret
    50201522:	0015c783          	lbu	a5,1(a1)
    50201526:	40f7053b          	subw	a0,a4,a5
    5020152a:	8082                	ret
    5020152c:	0005c783          	lbu	a5,0(a1)
    50201530:	b7f5                	j	5020151c <strcmp+0x1e>

0000000050201532 <strncmp>:
    50201532:	c21d                	beqz	a2,50201558 <strncmp+0x26>
    50201534:	1602                	slli	a2,a2,0x20
    50201536:	9201                	srli	a2,a2,0x20
    50201538:	962a                	add	a2,a2,a0
    5020153a:	a031                	j	50201546 <strncmp+0x14>
    5020153c:	0585                	addi	a1,a1,1
    5020153e:	00e79f63          	bne	a5,a4,5020155c <strncmp+0x2a>
    50201542:	00c50b63          	beq	a0,a2,50201558 <strncmp+0x26>
    50201546:	00054783          	lbu	a5,0(a0)
    5020154a:	0005c703          	lbu	a4,0(a1)
    5020154e:	0505                	addi	a0,a0,1
    50201550:	f7f5                	bnez	a5,5020153c <strncmp+0xa>
    50201552:	4501                	li	a0,0
    50201554:	9d19                	subw	a0,a0,a4
    50201556:	8082                	ret
    50201558:	4501                	li	a0,0
    5020155a:	8082                	ret
    5020155c:	0007851b          	sext.w	a0,a5
    50201560:	9d19                	subw	a0,a0,a4
    50201562:	8082                	ret

0000000050201564 <strcpy>:
    50201564:	0005c783          	lbu	a5,0(a1)
    50201568:	872a                	mv	a4,a0
    5020156a:	cb81                	beqz	a5,5020157a <strcpy+0x16>
    5020156c:	0585                	addi	a1,a1,1
    5020156e:	00f70023          	sb	a5,0(a4)
    50201572:	0005c783          	lbu	a5,0(a1)
    50201576:	0705                	addi	a4,a4,1
    50201578:	fbf5                	bnez	a5,5020156c <strcpy+0x8>
    5020157a:	00070023          	sb	zero,0(a4)
    5020157e:	8082                	ret

0000000050201580 <strncpy>:
    50201580:	0005c683          	lbu	a3,0(a1)
    50201584:	88b2                	mv	a7,a2
    50201586:	87aa                	mv	a5,a0
    50201588:	c685                	beqz	a3,502015b0 <strncpy+0x30>
    5020158a:	fff6081b          	addiw	a6,a2,-1
    5020158e:	0105083b          	addw	a6,a0,a6
    50201592:	9e29                	addw	a2,a2,a0
    50201594:	a039                	j	502015a2 <strncpy+0x22>
    50201596:	00d78023          	sb	a3,0(a5)
    5020159a:	0005c683          	lbu	a3,0(a1)
    5020159e:	0785                	addi	a5,a5,1
    502015a0:	ca81                	beqz	a3,502015b0 <strncpy+0x30>
    502015a2:	40f6073b          	subw	a4,a2,a5
    502015a6:	0585                	addi	a1,a1,1
    502015a8:	40f808bb          	subw	a7,a6,a5
    502015ac:	fee045e3          	bgtz	a4,50201596 <strncpy+0x16>
    502015b0:	02089713          	slli	a4,a7,0x20
    502015b4:	9301                	srli	a4,a4,0x20
    502015b6:	973e                	add	a4,a4,a5
    502015b8:	01105863          	blez	a7,502015c8 <strncpy+0x48>
    502015bc:	0785                	addi	a5,a5,1
    502015be:	fe078fa3          	sb	zero,-1(a5)
    502015c2:	fef71de3          	bne	a4,a5,502015bc <strncpy+0x3c>
    502015c6:	8082                	ret
    502015c8:	8082                	ret

00000000502015ca <strcat>:
    502015ca:	00054783          	lbu	a5,0(a0)
    502015ce:	c39d                	beqz	a5,502015f4 <strcat+0x2a>
    502015d0:	87aa                	mv	a5,a0
    502015d2:	0017c703          	lbu	a4,1(a5)
    502015d6:	0785                	addi	a5,a5,1
    502015d8:	ff6d                	bnez	a4,502015d2 <strcat+0x8>
    502015da:	0005c703          	lbu	a4,0(a1)
    502015de:	cb01                	beqz	a4,502015ee <strcat+0x24>
    502015e0:	0785                	addi	a5,a5,1
    502015e2:	0585                	addi	a1,a1,1
    502015e4:	fee78fa3          	sb	a4,-1(a5)
    502015e8:	0005c703          	lbu	a4,0(a1)
    502015ec:	fb75                	bnez	a4,502015e0 <strcat+0x16>
    502015ee:	00078023          	sb	zero,0(a5)
    502015f2:	8082                	ret
    502015f4:	87aa                	mv	a5,a0
    502015f6:	bfcd                	j	502015e8 <strcat+0x1e>
